target datalayout = "e-m:e-p270:32:32-p271:32:32-p272:64:64-i64:64-i128:128-f80:128-n8:16:32:64-S128"
target triple = "x86_64-pc-linux-gnu"

%struct.lxb_html_tree = type { ptr, ptr, ptr, ptr, ptr, ptr, ptr, %struct.lxb_html_tree_pending_table_t, ptr, i8, i8, i8, i8, i8, i8, ptr, ptr, ptr, i32, i64 }
%struct.lxb_html_tree_pending_table_t = type { ptr, i8 }
%struct.lxb_html_token_t = type { ptr, ptr, i64, i64, ptr, ptr, ptr, ptr, ptr, i64, i64, i32 }
%struct.lexbor_str_t = type { ptr, i64 }
%struct.lxb_dom_node = type { %struct.lxb_dom_event_target, i64, i64, i64, ptr, ptr, ptr, ptr, ptr, ptr, ptr, i32, i64 }
%struct.lxb_dom_event_target = type { ptr }
%struct.lxb_dom_attr = type { %struct.lxb_dom_node, i64, i64, ptr, ptr, ptr, ptr }

@.str = private unnamed_addr constant [5 x i8] c"type\00", align 1
@.str.1 = private unnamed_addr constant [7 x i8] c"hidden\00", align 1

; Function Attrs: inlinehint nounwind uwtable
define internal zeroext i1 @lxb_html_tag_is_void(i64 noundef %0) #3 {
  %2 = alloca i1, align 1
  %3 = alloca i64, align 8
  store i64 %0, ptr %3, align 8, !tbaa !50
  %4 = load i64, ptr %3, align 8, !tbaa !50
  switch i64 %4, label %6 [
    i64 18, label %5
    i64 23, label %5
    i64 32, label %5
    i64 40, label %5
    i64 55, label %5
    i64 100, label %5
    i64 105, label %5
    i64 106, label %5
    i64 115, label %5
    i64 124, label %5
    i64 166, label %5
    i64 188, label %5
    i64 194, label %5
  ]

5:                                                ; preds = %1, %1, %1, %1, %1, %1, %1, %1, %1, %1, %1, %1, %1
  store i1 true, ptr %2, align 1
  br label %7

6:                                                ; preds = %1
  store i1 false, ptr %2, align 1
  br label %7

7:                                                ; preds = %6, %5
  %8 = load i1, ptr %2, align 1
  ret i1 %8
}

; Function Attrs: inlinehint nounwind uwtable
define internal void @lxb_html_tree_acknowledge_token_self_closing(ptr noundef %0, ptr noundef %1) #3 {
  %3 = alloca ptr, align 8
  %4 = alloca ptr, align 8
  %5 = alloca i8, align 1
  store ptr %0, ptr %3, align 8, !tbaa !4
  store ptr %1, ptr %4, align 8, !tbaa !9
  %6 = load ptr, ptr %4, align 8, !tbaa !9
  %7 = getelementptr inbounds nuw %struct.lxb_html_token_t, ptr %6, i32 0, i32 11
  %8 = load i32, ptr %7, align 8, !tbaa !36
  %9 = and i32 %8, 2
  %10 = icmp eq i32 %9, 0
  br i1 %10, label %11, label %12

11:                                               ; preds = %2
  br label %24

12:                                               ; preds = %2
  call void @llvm.lifetime.start.p0(i64 1, ptr %5) #5
  %13 = load ptr, ptr %4, align 8, !tbaa !9
  %14 = getelementptr inbounds nuw %struct.lxb_html_token_t, ptr %13, i32 0, i32 10
  %15 = load i64, ptr %14, align 8, !tbaa !21
  %16 = call zeroext i1 @lxb_html_tag_is_void(i64 noundef %15)
  %17 = zext i1 %16 to i8
  store i8 %17, ptr %5, align 1, !tbaa !38
  %18 = load i8, ptr %5, align 1, !tbaa !38, !range !29, !noundef !30
  %19 = trunc i8 %18 to i1
  br i1 %19, label %23, label %20

20:                                               ; preds = %12
  %21 = load ptr, ptr %3, align 8, !tbaa !4
  %22 = load ptr, ptr %4, align 8, !tbaa !9
  call void @lxb_html_tree_parse_error(ptr noundef %21, ptr noundef %22, i32 noundef 11)
  br label %23

23:                                               ; preds = %20, %12
  call void @llvm.lifetime.end.p0(i64 1, ptr %5) #5
  br label %24

24:                                               ; preds = %23, %11
  ret void
}

; Function Attrs: inlinehint nounwind uwtable
define internal ptr @lxb_html_tree_open_elements_pop(ptr noundef %0) #3 {
  %2 = alloca ptr, align 8
  store ptr %0, ptr %2, align 8, !tbaa !4
  %3 = load ptr, ptr %2, align 8, !tbaa !4
  %4 = getelementptr inbounds nuw %struct.lxb_html_tree, ptr %3, i32 0, i32 4
  %5 = load ptr, ptr %4, align 8, !tbaa !44
  %6 = call ptr @lexbor_array_pop(ptr noundef %5)
  ret ptr %6
}

; Function Attrs: inlinehint nounwind uwtable
define internal ptr @lxb_html_tree_insert_html_element(ptr noundef %0, ptr noundef %1) #3 {
  %3 = alloca ptr, align 8
  %4 = alloca ptr, align 8
  store ptr %0, ptr %3, align 8, !tbaa !4
  store ptr %1, ptr %4, align 8, !tbaa !9
  %5 = load ptr, ptr %3, align 8, !tbaa !4
  %6 = load ptr, ptr %4, align 8, !tbaa !9
  %7 = call ptr @lxb_html_tree_insert_foreign_element(ptr noundef %5, ptr noundef %6, i64 noundef 2)
  ret ptr %7
}

; Function Attrs: inlinehint nounwind uwtable
define internal zeroext i1 @lxb_html_tree_insertion_mode_in_body_input(ptr noundef %0, ptr noundef %1) #3 {
  %3 = alloca i1, align 1
  %4 = alloca ptr, align 8
  %5 = alloca ptr, align 8
  %6 = alloca ptr, align 8
  %7 = alloca ptr, align 8
  %8 = alloca i32, align 4
  store ptr %0, ptr %4, align 8, !tbaa !4
  store ptr %1, ptr %5, align 8, !tbaa !9
  call void @llvm.lifetime.start.p0(i64 8, ptr %6) #5
  call void @llvm.lifetime.start.p0(i64 8, ptr %7) #5
  %9 = load ptr, ptr %4, align 8, !tbaa !4
  %10 = call i32 @lxb_html_tree_active_formatting_reconstruct_elements(ptr noundef %9)
  %11 = load ptr, ptr %4, align 8, !tbaa !4
  %12 = getelementptr inbounds nuw %struct.lxb_html_tree, ptr %11, i32 0, i32 18
  store i32 %10, ptr %12, align 8, !tbaa !25
  %13 = load ptr, ptr %4, align 8, !tbaa !4
  %14 = getelementptr inbounds nuw %struct.lxb_html_tree, ptr %13, i32 0, i32 18
  %15 = load i32, ptr %14, align 8, !tbaa !25
  %16 = icmp ne i32 %15, 0
  br i1 %16, label %17, label %20

17:                                               ; preds = %2
  %18 = load ptr, ptr %4, align 8, !tbaa !4
  %19 = call zeroext i1 @lxb_html_tree_process_abort(ptr noundef %18)
  store i1 %19, ptr %3, align 1
  store i32 1, ptr %8, align 4
  br label %69

20:                                               ; preds = %2
  %21 = load ptr, ptr %4, align 8, !tbaa !4
  %22 = load ptr, ptr %5, align 8, !tbaa !9
  %23 = call ptr @lxb_html_tree_insert_html_element(ptr noundef %21, ptr noundef %22)
  store ptr %23, ptr %7, align 8, !tbaa !40
  %24 = load ptr, ptr %7, align 8, !tbaa !40
  %25 = icmp eq ptr %24, null
  br i1 %25, label %26, label %31

26:                                               ; preds = %20
  %27 = load ptr, ptr %4, align 8, !tbaa !4
  %28 = getelementptr inbounds nuw %struct.lxb_html_tree, ptr %27, i32 0, i32 18
  store i32 2, ptr %28, align 8, !tbaa !25
  %29 = load ptr, ptr %4, align 8, !tbaa !4
  %30 = call zeroext i1 @lxb_html_tree_process_abort(ptr noundef %29)
  store i1 %30, ptr %3, align 1
  store i32 1, ptr %8, align 4
  br label %69

31:                                               ; preds = %20
  %32 = load ptr, ptr %4, align 8, !tbaa !4
  %33 = call ptr @lxb_html_tree_open_elements_pop(ptr noundef %32)
  %34 = load ptr, ptr %4, align 8, !tbaa !4
  %35 = load ptr, ptr %5, align 8, !tbaa !9
  call void @lxb_html_tree_acknowledge_token_self_closing(ptr noundef %34, ptr noundef %35)
  %36 = load ptr, ptr %7, align 8, !tbaa !40
  %37 = call ptr @lxb_dom_element_attr_is_exist(ptr noundef %36, ptr noundef @.str, i64 noundef 4)
  store ptr %37, ptr %6, align 8, !tbaa !80
  %38 = load ptr, ptr %6, align 8, !tbaa !80
  %39 = icmp ne ptr %38, null
  br i1 %39, label %40, label %65

40:                                               ; preds = %31
  %41 = load ptr, ptr %6, align 8, !tbaa !80
  %42 = getelementptr inbounds nuw %struct.lxb_dom_attr, ptr %41, i32 0, i32 3
  %43 = load ptr, ptr %42, align 8, !tbaa !81
  %44 = icmp eq ptr %43, null
  br i1 %44, label %61, label %45

45:                                               ; preds = %40
  %46 = load ptr, ptr %6, align 8, !tbaa !80
  %47 = getelementptr inbounds nuw %struct.lxb_dom_attr, ptr %46, i32 0, i32 3
  %48 = load ptr, ptr %47, align 8, !tbaa !81
  %49 = getelementptr inbounds nuw %struct.lexbor_str_t, ptr %48, i32 0, i32 1
  %50 = load i64, ptr %49, align 8, !tbaa !34
  %51 = icmp ne i64 %50, 6
  br i1 %51, label %61, label %52

52:                                               ; preds = %45
  %53 = load ptr, ptr %6, align 8, !tbaa !80
  %54 = getelementptr inbounds nuw %struct.lxb_dom_attr, ptr %53, i32 0, i32 3
  %55 = load ptr, ptr %54, align 8, !tbaa !81
  %56 = getelementptr inbounds nuw %struct.lexbor_str_t, ptr %55, i32 0, i32 0
  %57 = load ptr, ptr %56, align 8, !tbaa !31
  %58 = call zeroext i1 @lexbor_str_data_cmp(ptr noundef %57, ptr noundef @.str.1)
  %59 = zext i1 %58 to i32
  %60 = icmp eq i32 %59, 0
  br i1 %60, label %61, label %64

61:                                               ; preds = %52, %45, %40
  %62 = load ptr, ptr %4, align 8, !tbaa !4
  %63 = getelementptr inbounds nuw %struct.lxb_html_tree, ptr %62, i32 0, i32 10
  store i8 0, ptr %63, align 1, !tbaa !28
  br label %64

64:                                               ; preds = %61, %52
  br label %68

65:                                               ; preds = %31
  %66 = load ptr, ptr %4, align 8, !tbaa !4
  %67 = getelementptr inbounds nuw %struct.lxb_html_tree, ptr %66, i32 0, i32 10
  store i8 0, ptr %67, align 1, !tbaa !28
  br label %68

68:                                               ; preds = %65, %64
  store i1 true, ptr %3, align 1
  store i32 1, ptr %8, align 4
  br label %69

69:                                               ; preds = %68, %26, %17
  call void @llvm.lifetime.end.p0(i64 8, ptr %7) #5
  call void @llvm.lifetime.end.p0(i64 8, ptr %6) #5
  %70 = load i1, ptr %3, align 1
  ret i1 %70
}