; Function Attrs: inlinehint nounwind uwtable
define internal fastcc zeroext i1 @lxb_html_tree_insertion_mode_in_body_input(ptr noundef %0, ptr noundef %1) unnamed_addr #3 {
  %3 = tail call i32 @lxb_html_tree_active_formatting_reconstruct_elements(ptr noundef %0) #6
  %4 = getelementptr inbounds nuw i8, ptr %0, i64 112
  store i32 %3, ptr %4, align 8, !tbaa !22
  %.not = icmp eq i32 %3, 0
  br i1 %.not, label %7, label %5

5:                                                ; preds = %2
  %6 = tail call zeroext i1 @lxb_html_tree_process_abort(ptr noundef nonnull %0) #6
  br label %37

7:                                                ; preds = %2
  %8 = tail call ptr @lxb_html_tree_insert_foreign_element(ptr noundef nonnull %0, ptr noundef %1, i64 noundef 2) #6
  %9 = icmp eq ptr %8, null
  br i1 %9, label %10, label %12

10:                                               ; preds = %7
  store i32 2, ptr %4, align 8, !tbaa !22
  %11 = tail call zeroext i1 @lxb_html_tree_process_abort(ptr noundef nonnull %0) #6
  br label %37

12:                                               ; preds = %7
  %13 = getelementptr i8, ptr %0, i64 32
  %.val = load ptr, ptr %13, align 8, !tbaa !33
  %14 = tail call ptr @lexbor_array_pop(ptr noundef %.val) #6
  %15 = getelementptr inbounds nuw i8, ptr %1, i64 88
  %16 = load i32, ptr %15, align 8, !tbaa !32
  %17 = and i32 %16, 2
  %18 = icmp eq i32 %17, 0
  br i1 %18, label %lxb_html_tree_acknowledge_token_self_closing.exit, label %19

19:                                               ; preds = %12
  %20 = getelementptr inbounds nuw i8, ptr %1, i64 80
  %21 = load i64, ptr %20, align 8, !tbaa !18
  switch i64 %21, label %lxb_html_tag_is_void.exit.i [
    i64 18, label %lxb_html_tree_acknowledge_token_self_closing.exit
    i64 23, label %lxb_html_tree_acknowledge_token_self_closing.exit
    i64 32, label %lxb_html_tree_acknowledge_token_self_closing.exit
    i64 40, label %lxb_html_tree_acknowledge_token_self_closing.exit
    i64 55, label %lxb_html_tree_acknowledge_token_self_closing.exit
    i64 100, label %lxb_html_tree_acknowledge_token_self_closing.exit
    i64 105, label %lxb_html_tree_acknowledge_token_self_closing.exit
    i64 106, label %lxb_html_tree_acknowledge_token_self_closing.exit
    i64 115, label %lxb_html_tree_acknowledge_token_self_closing.exit
    i64 124, label %lxb_html_tree_acknowledge_token_self_closing.exit
    i64 166, label %lxb_html_tree_acknowledge_token_self_closing.exit
    i64 188, label %lxb_html_tree_acknowledge_token_self_closing.exit
    i64 194, label %lxb_html_tree_acknowledge_token_self_closing.exit
  ]

lxb_html_tag_is_void.exit.i:                      ; preds = %19
  tail call void @lxb_html_tree_parse_error(ptr noundef nonnull %0, ptr noundef nonnull %1, i32 noundef 11) #6
  br label %lxb_html_tree_acknowledge_token_self_closing.exit

lxb_html_tree_acknowledge_token_self_closing.exit: ; preds = %12, %19, %19, %19, %19, %19, %19, %19, %19, %19, %19, %19, %19, %19, %lxb_html_tag_is_void.exit.i
  %22 = tail call ptr @lxb_dom_element_attr_is_exist(ptr noundef nonnull %8, ptr noundef nonnull @.str, i64 noundef 4) #6
  %.not23 = icmp eq ptr %22, null
  br i1 %.not23, label %35, label %23

23:                                               ; preds = %lxb_html_tree_acknowledge_token_self_closing.exit
  %24 = getelementptr inbounds nuw i8, ptr %22, i64 120
  %25 = load ptr, ptr %24, align 8, !tbaa !73
  %26 = icmp eq ptr %25, null
  br i1 %26, label %33, label %27

27:                                               ; preds = %23
  %28 = getelementptr inbounds nuw i8, ptr %25, i64 8
  %29 = load i64, ptr %28, align 8, !tbaa !30
  %.not24 = icmp eq i64 %29, 6
  br i1 %.not24, label %30, label %33

30:                                               ; preds = %27
  %31 = load ptr, ptr %25, align 8, !tbaa !28
  %32 = tail call zeroext i1 @lexbor_str_data_cmp(ptr noundef %31, ptr noundef nonnull @.str.1) #6
  br i1 %32, label %37, label %33

33:                                               ; preds = %30, %27, %23
  %34 = getelementptr inbounds nuw i8, ptr %0, i64 81
  store i8 0, ptr %34, align 1, !tbaa !25
  br label %37

35:                                               ; preds = %lxb_html_tree_acknowledge_token_self_closing.exit
  %36 = getelementptr inbounds nuw i8, ptr %0, i64 81
  store i8 0, ptr %36, align 1, !tbaa !25
  br label %37

37:                                               ; preds = %35, %33, %30, %10, %5
  %.0 = phi i1 [ %6, %5 ], [ %11, %10 ], [ true, %30 ], [ true, %33 ], [ true, %35 ]
  ret i1 %.0
}